Certificate:
    Data:
        Version: 3 (0x2)
        Serial Number: 1 (0x1)
        Signature Algorithm: sha1WithRSAEncryption
        Issuer: C=US, O=SSTrain AS, OU=SSTrain Root Certificate Authority, CN=SSTrain Root CA
        Validity
            Not Before: Feb  9 14:11:04 2022 GMT
            Not After : Dec 31 23:59:59 2030 GMT
        Subject: C=US, O=SSTrain AS, OU=SSTrain Root Certificate Authority, CN=SSTrain Root CA
        Subject Public Key Info:
            Public Key Algorithm: rsaEncryption
                RSA Public-Key: (2048 bit)
                Modulus:
                    00:ba:9c:86:1b:4c:3f:bd:06:e5:91:15:29:c0:45:
                    b7:76:f1:13:61:c7:55:97:a8:c5:ff:d9:e7:d8:64:
                    9f:5c:6d:39:07:df:29:b7:cb:b6:3e:3d:89:eb:43:
                    09:d7:99:5f:0a:1d:1b:d8:b5:22:98:a8:2c:8d:5b:
                    d6:3b:60:37:1f:e7:19:7a:c3:10:97:2e:a9:24:9f:
                    43:54:9f:02:c6:76:64:9b:70:cf:d8:56:c0:b2:82:
                    df:6a:e4:d0:c9:4b:1d:67:57:42:e3:b8:bd:7b:27:
                    66:25:67:7d:b8:3f:6d:3d:3b:34:27:34:f2:93:24:
                    d4:99:0b:55:a8:ec:bf:90:f9:0c:2a:b8:1c:07:89:
                    57:45:6e:54:8b:0f:ab:a8:55:5e:1d:2f:ba:cb:68:
                    8e:7e:ea:a1:7d:ae:a7:6f:1a:a5:f0:73:14:ea:1a:
                    e6:da:c0:e1:51:a4:00:80:27:bc:2f:d2:74:08:ea:
                    88:30:66:a6:38:15:79:b3:2b:bb:f3:db:e5:ef:be:
                    44:d3:f8:7c:4b:50:8a:33:29:ef:c7:3d:24:82:c5:
                    14:38:f9:4a:21:91:e0:23:c0:33:16:e7:91:ca:82:
                    d1:e8:17:6e:62:a6:45:25:6f:3e:b8:e3:13:8f:c8:
                    ef:96:da:9a:21:08:49:6e:9a:a9:10:ee:32:da:3d:
                    8d:61
                Exponent: 65537 (0x10001)
        X509v3 extensions:
            X509v3 Key Usage: critical
                Digital Signature, Certificate Sign, CRL Sign
            X509v3 Basic Constraints: critical
                CA:TRUE
            X509v3 Subject Key Identifier: 
                71:AC:80:6E:AF:0F:45:D6:C8:82:40:13:15:B4:18:36:09:5D:E0:D0
            X509v3 Authority Key Identifier: 
                keyid:71:AC:80:6E:AF:0F:45:D6:C8:82:40:13:15:B4:18:36:09:5D:E0:D0

    Signature Algorithm: sha1WithRSAEncryption
         8d:cb:ed:7c:e3:ff:cd:eb:83:2d:69:96:e6:ef:ab:ec:61:c1:
         a1:8a:39:8f:b7:d5:ed:0b:cf:d9:a3:30:19:ab:1d:58:37:e4:
         33:19:96:6b:6f:59:5b:fc:eb:12:25:2c:99:40:1a:b3:e3:c8:
         12:e0:4f:40:ae:7b:37:07:ab:23:28:8d:34:14:c8:91:4c:96:
         47:ef:b5:02:ad:d8:31:60:fd:91:db:3f:db:b5:6a:d5:e8:b6:
         ed:c9:fa:85:83:9c:9b:01:7d:44:60:e0:68:d0:13:0f:f2:0d:
         42:22:38:fc:b5:22:ff:0a:76:72:d8:e9:e6:53:bd:5a:b5:00:
         e1:6a:cd:dd:87:c0:bf:15:5a:7e:53:0e:44:c1:c1:41:1c:6b:
         64:15:7f:27:23:71:ba:46:f4:7a:bd:99:e4:a8:08:58:83:7a:
         93:b7:09:37:60:0d:94:47:a9:45:72:42:ee:e9:84:62:5f:85:
         dd:b8:86:3e:e8:60:4a:60:ff:c4:fc:51:fe:e2:dd:b9:3d:29:
         80:4e:29:6a:5d:a5:75:01:42:13:4e:f4:22:f5:fe:fd:7f:04:
         00:ed:dd:e1:f9:44:b2:34:6e:82:ca:b0:3e:f8:7a:8f:1c:b9:
         50:64:4b:a9:d9:78:f2:1c:41:cc:77:26:1c:fa:46:62:0f:9a:
         9f:b3:87:81
-----BEGIN CERTIFICATE-----
MIIDsDCCApigAwIBAgIBATANBgkqhkiG9w0BAQUFADBpMQswCQYDVQQGEwJVUzET
MBEGA1UECgwKU1NUcmFpbiBBUzErMCkGA1UECwwiU1NUcmFpbiBSb290IENlcnRp
ZmljYXRlIEF1dGhvcml0eTEYMBYGA1UEAwwPU1NUcmFpbiBSb290IENBMB4XDTIy
MDIwOTE0MTEwNFoXDTMwMTIzMTIzNTk1OVowaTELMAkGA1UEBhMCVVMxEzARBgNV
BAoMClNTVHJhaW4gQVMxKzApBgNVBAsMIlNTVHJhaW4gUm9vdCBDZXJ0aWZpY2F0
ZSBBdXRob3JpdHkxGDAWBgNVBAMMD1NTVHJhaW4gUm9vdCBDQTCCASIwDQYJKoZI
hvcNAQEBBQADggEPADCCAQoCggEBALqchhtMP70G5ZEVKcBFt3bxE2HHVZeoxf/Z
59hkn1xtOQffKbfLtj49ietDCdeZXwodG9i1IpioLI1b1jtgNx/nGXrDEJcuqSSf
Q1SfAsZ2ZJtwz9hWwLKC32rk0MlLHWdXQuO4vXsnZiVnfbg/bT07NCc08pMk1JkL
Vajsv5D5DCq4HAeJV0VuVIsPq6hVXh0vustojn7qoX2up28apfBzFOoa5trA4VGk
AIAnvC/SdAjqiDBmpjgVebMru/Pb5e++RNP4fEtQijMp78c9JILFFDj5SiGR4CPA
MxbnkcqC0egXbmKmRSVvPrjjE4/I75bamiEISW6aqRDuMto9jWECAwEAAaNjMGEw
DgYDVR0PAQH/BAQDAgGGMA8GA1UdEwEB/wQFMAMBAf8wHQYDVR0OBBYEFHGsgG6v
D0XWyIJAExW0GDYJXeDQMB8GA1UdIwQYMBaAFHGsgG6vD0XWyIJAExW0GDYJXeDQ
MA0GCSqGSIb3DQEBBQUAA4IBAQCNy+184//N64MtaZbm76vsYcGhijmPt9XtC8/Z
ozAZqx1YN+QzGZZrb1lb/OsSJSyZQBqz48gS4E9Arns3B6sjKI00FMiRTJZH77UC
rdgxYP2R2z/btWrV6LbtyfqFg5ybAX1EYOBo0BMP8g1CIjj8tSL/CnZy2OnmU71a
tQDhas3dh8C/FVp+Uw5EwcFBHGtkFX8nI3G6RvR6vZnkqAhYg3qTtwk3YA2UR6lF
ckLu6YRiX4XduIY+6GBKYP/E/FH+4t25PSmATilqXaV1AUITTvQi9f79fwQA7d3h
+USyNG6CyrA++HqPHLlQZEup2XjyHEHMdyYc+kZiD5qfs4eB
-----END CERTIFICATE-----
