Certificate:
    Data:
        Version: 3 (0x2)
        Serial Number: 2 (0x2)
        Signature Algorithm: sha1WithRSAEncryption
        Issuer: C=US, O=SSTrain AS, OU=SSTrain Root Certificate Authority, CN=SSTrain Root CA
        Validity
            Not Before: Feb  9 14:12:27 2022 GMT
            Not After : Dec 31 23:59:59 2030 GMT
        Subject: C=US, O=SSTrain AS, OU=SSTrain Root Certificate Authority, CN=SSTrain Root CA
        Subject Public Key Info:
            Public Key Algorithm: rsaEncryption
                RSA Public-Key: (2048 bit)
                Modulus:
                    00:ba:9c:86:1b:4c:3f:bd:06:e5:91:15:29:c0:45:
                    b7:76:f1:13:61:c7:55:97:a8:c5:ff:d9:e7:d8:64:
                    9f:5c:6d:39:07:df:29:b7:cb:b6:3e:3d:89:eb:43:
                    09:d7:99:5f:0a:1d:1b:d8:b5:22:98:a8:2c:8d:5b:
                    d6:3b:60:37:1f:e7:19:7a:c3:10:97:2e:a9:24:9f:
                    43:54:9f:02:c6:76:64:9b:70:cf:d8:56:c0:b2:82:
                    df:6a:e4:d0:c9:4b:1d:67:57:42:e3:b8:bd:7b:27:
                    66:25:67:7d:b8:3f:6d:3d:3b:34:27:34:f2:93:24:
                    d4:99:0b:55:a8:ec:bf:90:f9:0c:2a:b8:1c:07:89:
                    57:45:6e:54:8b:0f:ab:a8:55:5e:1d:2f:ba:cb:68:
                    8e:7e:ea:a1:7d:ae:a7:6f:1a:a5:f0:73:14:ea:1a:
                    e6:da:c0:e1:51:a4:00:80:27:bc:2f:d2:74:08:ea:
                    88:30:66:a6:38:15:79:b3:2b:bb:f3:db:e5:ef:be:
                    44:d3:f8:7c:4b:50:8a:33:29:ef:c7:3d:24:82:c5:
                    14:38:f9:4a:21:91:e0:23:c0:33:16:e7:91:ca:82:
                    d1:e8:17:6e:62:a6:45:25:6f:3e:b8:e3:13:8f:c8:
                    ef:96:da:9a:21:08:49:6e:9a:a9:10:ee:32:da:3d:
                    8d:61
                Exponent: 65537 (0x10001)
        X509v3 extensions:
            X509v3 Key Usage: critical
                Digital Signature, Certificate Sign, CRL Sign
            X509v3 Basic Constraints: critical
                CA:TRUE
            X509v3 Subject Key Identifier: 
                71:AC:80:6E:AF:0F:45:D6:C8:82:40:13:15:B4:18:36:09:5D:E0:D0
            X509v3 Authority Key Identifier: 
                keyid:71:AC:80:6E:AF:0F:45:D6:C8:82:40:13:15:B4:18:36:09:5D:E0:D0

    Signature Algorithm: sha1WithRSAEncryption
         69:99:82:ce:5e:b7:c5:76:d8:50:3d:da:3d:2d:3c:be:12:c8:
         af:ec:9b:1c:3e:dc:c1:66:48:af:68:9e:8e:12:fb:72:64:a3:
         7e:3c:af:fb:2c:ce:1a:04:0a:e3:3b:56:93:7f:a1:93:89:15:
         45:3a:cf:2b:22:a7:1b:d4:38:9f:a8:64:7d:b4:73:6e:d5:72:
         43:fb:90:94:4b:ad:ed:e6:e0:ba:fd:62:fb:c2:a5:86:85:25:
         f2:a1:6b:b9:78:15:98:8b:0b:a2:c9:9b:18:40:6a:eb:b1:08:
         3c:5a:ef:29:e2:da:92:98:10:c6:93:b6:4b:9a:e6:6c:a5:ad:
         87:ad:c5:5a:55:e5:52:44:c2:ec:83:df:3d:68:e8:f1:2d:44:
         95:09:72:79:57:c4:bb:b6:af:88:ad:77:b3:cc:aa:9e:47:53:
         fb:77:d4:a9:ce:f9:b9:64:42:fe:24:ab:2d:bf:f3:68:3d:d4:
         9c:79:ff:3d:d9:fe:8a:72:8f:80:5c:d9:0e:99:cf:7d:c9:58:
         b0:50:47:93:27:d9:ec:56:17:22:0a:e9:cb:6e:2b:cd:49:9b:
         81:db:97:95:e6:1d:12:f8:84:85:1b:1a:cf:4f:37:01:01:46:
         e9:37:aa:28:d8:8d:7e:38:a0:95:79:76:23:ea:ac:f9:8f:50:
         41:c0:a7:c2
-----BEGIN CERTIFICATE-----
MIIDsDCCApigAwIBAgIBAjANBgkqhkiG9w0BAQUFADBpMQswCQYDVQQGEwJVUzET
MBEGA1UECgwKU1NUcmFpbiBBUzErMCkGA1UECwwiU1NUcmFpbiBSb290IENlcnRp
ZmljYXRlIEF1dGhvcml0eTEYMBYGA1UEAwwPU1NUcmFpbiBSb290IENBMB4XDTIy
MDIwOTE0MTIyN1oXDTMwMTIzMTIzNTk1OVowaTELMAkGA1UEBhMCVVMxEzARBgNV
BAoMClNTVHJhaW4gQVMxKzApBgNVBAsMIlNTVHJhaW4gUm9vdCBDZXJ0aWZpY2F0
ZSBBdXRob3JpdHkxGDAWBgNVBAMMD1NTVHJhaW4gUm9vdCBDQTCCASIwDQYJKoZI
hvcNAQEBBQADggEPADCCAQoCggEBALqchhtMP70G5ZEVKcBFt3bxE2HHVZeoxf/Z
59hkn1xtOQffKbfLtj49ietDCdeZXwodG9i1IpioLI1b1jtgNx/nGXrDEJcuqSSf
Q1SfAsZ2ZJtwz9hWwLKC32rk0MlLHWdXQuO4vXsnZiVnfbg/bT07NCc08pMk1JkL
Vajsv5D5DCq4HAeJV0VuVIsPq6hVXh0vustojn7qoX2up28apfBzFOoa5trA4VGk
AIAnvC/SdAjqiDBmpjgVebMru/Pb5e++RNP4fEtQijMp78c9JILFFDj5SiGR4CPA
MxbnkcqC0egXbmKmRSVvPrjjE4/I75bamiEISW6aqRDuMto9jWECAwEAAaNjMGEw
DgYDVR0PAQH/BAQDAgGGMA8GA1UdEwEB/wQFMAMBAf8wHQYDVR0OBBYEFHGsgG6v
D0XWyIJAExW0GDYJXeDQMB8GA1UdIwQYMBaAFHGsgG6vD0XWyIJAExW0GDYJXeDQ
MA0GCSqGSIb3DQEBBQUAA4IBAQBpmYLOXrfFdthQPdo9LTy+Esiv7JscPtzBZkiv
aJ6OEvtyZKN+PK/7LM4aBArjO1aTf6GTiRVFOs8rIqcb1DifqGR9tHNu1XJD+5CU
S63t5uC6/WL7wqWGhSXyoWu5eBWYiwuiyZsYQGrrsQg8Wu8p4tqSmBDGk7ZLmuZs
pa2HrcVaVeVSRMLsg989aOjxLUSVCXJ5V8S7tq+IrXezzKqeR1P7d9Spzvm5ZEL+
JKstv/NoPdScef892f6Kco+AXNkOmc99yViwUEeTJ9nsVhciCunLbivNSZuB25eV
5h0S+ISFGxrPTzcBAUbpN6oo2I1+OKCVeXYj6qz5j1BBwKfC
-----END CERTIFICATE-----
