Certificate:
    Data:
        Version: 3 (0x2)
        Serial Number: 4 (0x4)
        Signature Algorithm: sha1WithRSAEncryption
        Issuer: C=US, O=SSTrain AS, OU=SSTrain Root Certificate Authority, CN=SSTrain Root CA
        Validity
            Not Before: Feb  9 14:30:50 2022 GMT
            Not After : Feb  9 14:30:50 2032 GMT
        Subject: C=US, O=SSTrain AS, OU=SSTrain Serversign Certificate Authority, CN=SSTrain Serversign CA
        Subject Public Key Info:
            Public Key Algorithm: rsaEncryption
                RSA Public-Key: (2048 bit)
                Modulus:
                    00:b4:88:02:da:c3:3b:5e:7c:ab:b7:eb:48:40:90:
                    0b:ac:1d:e3:15:7e:07:e1:96:db:66:e4:c2:50:b0:
                    b9:48:00:05:14:c4:06:cf:d5:70:3c:7d:e9:b2:1b:
                    64:7e:46:ff:bb:47:e4:df:62:b7:20:41:d7:26:f6:
                    44:c8:2c:03:13:e8:1e:61:31:55:2e:e4:c2:0c:89:
                    50:f4:16:d2:77:d2:44:2e:0c:16:29:d8:43:3a:08:
                    fc:b7:2d:01:cb:7c:0f:5e:14:d2:d0:af:c5:8b:54:
                    bd:db:7f:cb:ee:6d:e6:66:5d:6d:04:96:64:e6:a7:
                    ae:df:c1:93:66:8e:67:c7:3e:97:2a:da:83:4d:4e:
                    5a:fa:8a:5b:a6:79:f1:cd:c8:1a:03:71:d5:73:8f:
                    50:3b:f3:e4:3f:f7:e0:dc:03:dd:33:db:c2:d9:59:
                    d6:22:19:79:39:bc:96:f9:a2:c8:d5:73:10:8f:d7:
                    a3:aa:f8:b7:c1:bd:c9:a6:d7:14:b3:d5:61:73:bd:
                    d1:a1:80:58:99:02:b8:44:59:a2:60:34:b9:d3:15:
                    06:27:8c:2d:b0:61:3f:24:36:53:b3:10:d7:06:22:
                    8b:9f:10:53:67:9c:de:53:73:4a:ca:77:ab:30:33:
                    64:0d:b3:89:c5:94:8c:8d:07:ff:d5:46:8b:ca:93:
                    8a:c1
                Exponent: 65537 (0x10001)
        X509v3 extensions:
            X509v3 Key Usage: critical
                Certificate Sign, CRL Sign
            X509v3 Basic Constraints: critical
                CA:TRUE, pathlen:0
            X509v3 Subject Key Identifier: 
                11:3E:8C:45:A9:95:E6:8C:0C:7B:DA:B6:B0:55:85:B9:4F:54:8E:E9
            X509v3 Authority Key Identifier: 
                keyid:71:AC:80:6E:AF:0F:45:D6:C8:82:40:13:15:B4:18:36:09:5D:E0:D0

            Authority Information Access: 
                CA Issuers - URI:http://sstrain.com/ca/root-ca.cer

            X509v3 CRL Distribution Points: 

                Full Name:
                  URI:http://sstrain.com/ca/root-ca.crl

    Signature Algorithm: sha1WithRSAEncryption
         50:c0:58:4e:e4:ee:75:66:73:af:92:92:89:09:1b:d4:ab:9d:
         db:50:d5:12:1c:6c:ca:e3:ef:df:9f:bb:fa:d9:8e:d3:71:ad:
         1e:c7:2a:9f:60:7f:4a:06:fb:88:0d:b4:36:86:bd:53:db:0e:
         cf:1d:c3:b9:15:4e:b3:38:63:0a:9f:8c:26:9e:d9:81:de:2b:
         b1:93:9e:97:60:a5:3b:5a:1f:ad:db:42:e0:07:eb:6e:e3:bf:
         ba:01:61:16:30:27:71:bd:54:02:63:de:cd:ca:c1:71:8d:40:
         0a:e7:26:34:6a:46:f9:d3:16:dd:1f:bc:0e:33:6c:3b:d9:cc:
         29:66:17:3d:04:e5:85:47:07:ca:12:5c:9c:68:60:46:b1:0f:
         bb:db:2d:17:70:3f:c6:04:f7:c6:dc:bc:12:25:47:0e:df:8b:
         59:62:c7:99:86:a0:92:28:d2:73:5d:11:21:a2:d4:95:c8:70:
         82:2f:34:b3:11:e6:d8:af:76:80:57:01:66:2e:47:d5:e5:91:
         f7:bd:7a:36:d9:2b:da:be:e5:17:2c:b4:10:6e:01:93:1b:f5:
         da:4f:a3:54:d3:95:05:56:60:ee:41:86:8e:9e:bf:11:35:d4:
         ba:7a:53:16:07:09:15:85:84:8d:62:5e:00:73:0e:24:f3:34:
         05:d5:0a:e1
-----BEGIN CERTIFICATE-----
MIIENDCCAxygAwIBAgIBBDANBgkqhkiG9w0BAQUFADBpMQswCQYDVQQGEwJVUzET
MBEGA1UECgwKU1NUcmFpbiBBUzErMCkGA1UECwwiU1NUcmFpbiBSb290IENlcnRp
ZmljYXRlIEF1dGhvcml0eTEYMBYGA1UEAwwPU1NUcmFpbiBSb290IENBMB4XDTIy
MDIwOTE0MzA1MFoXDTMyMDIwOTE0MzA1MFowdTELMAkGA1UEBhMCVVMxEzARBgNV
BAoMClNTVHJhaW4gQVMxMTAvBgNVBAsMKFNTVHJhaW4gU2VydmVyc2lnbiBDZXJ0
aWZpY2F0ZSBBdXRob3JpdHkxHjAcBgNVBAMMFVNTVHJhaW4gU2VydmVyc2lnbiBD
QTCCASIwDQYJKoZIhvcNAQEBBQADggEPADCCAQoCggEBALSIAtrDO158q7frSECQ
C6wd4xV+B+GW22bkwlCwuUgABRTEBs/VcDx96bIbZH5G/7tH5N9ityBB1yb2RMgs
AxPoHmExVS7kwgyJUPQW0nfSRC4MFinYQzoI/LctAct8D14U0tCvxYtUvdt/y+5t
5mZdbQSWZOanrt/Bk2aOZ8c+lyrag01OWvqKW6Z58c3IGgNx1XOPUDvz5D/34NwD
3TPbwtlZ1iIZeTm8lvmiyNVzEI/Xo6r4t8G9yabXFLPVYXO90aGAWJkCuERZomA0
udMVBieMLbBhPyQ2U7MQ1wYii58QU2ec3lNzSsp3qzAzZA2zicWUjI0H/9VGi8qT
isECAwEAAaOB2jCB1zAOBgNVHQ8BAf8EBAMCAQYwEgYDVR0TAQH/BAgwBgEB/wIB
ADAdBgNVHQ4EFgQUET6MRamV5owMe9q2sFWFuU9UjukwHwYDVR0jBBgwFoAUcayA
bq8PRdbIgkATFbQYNgld4NAwPQYIKwYBBQUHAQEEMTAvMC0GCCsGAQUFBzAChiFo
dHRwOi8vc3N0cmFpbi5jb20vY2Evcm9vdC1jYS5jZXIwMgYDVR0fBCswKTAnoCWg
I4YhaHR0cDovL3NzdHJhaW4uY29tL2NhL3Jvb3QtY2EuY3JsMA0GCSqGSIb3DQEB
BQUAA4IBAQBQwFhO5O51ZnOvkpKJCRvUq53bUNUSHGzK4+/fn7v62Y7Tca0exyqf
YH9KBvuIDbQ2hr1T2w7PHcO5FU6zOGMKn4wmntmB3iuxk56XYKU7Wh+t20LgB+tu
47+6AWEWMCdxvVQCY97NysFxjUAK5yY0akb50xbdH7wOM2w72cwpZhc9BOWFRwfK
ElycaGBGsQ+72y0XcD/GBPfG3LwSJUcO34tZYseZhqCSKNJzXREhotSVyHCCLzSz
EebYr3aAVwFmLkfV5ZH3vXo22SvavuUXLLQQbgGTG/XaT6NU05UFVmDuQYaOnr8R
NdS6elMWBwkVhYSNYl4Acw4k8zQF1Qrh
-----END CERTIFICATE-----
