Certificate:
    Data:
        Version: 3 (0x2)
        Serial Number: 1 (0x1)
        Signature Algorithm: sha1WithRSAEncryption
        Issuer: C=US, O=SSTrain AS, OU=SSTrain TLS Certificate Authority, CN=SSTrain TLS CA
        Validity
            Not Before: Feb  9 15:28:07 2022 GMT
            Not After : Feb  9 15:28:07 2024 GMT
        Subject: C=US, O=SSTrain AS, CN=www.sstrain.com
        Subject Public Key Info:
            Public Key Algorithm: rsaEncryption
                RSA Public-Key: (2048 bit)
                Modulus:
                    00:a9:8d:0d:63:b6:35:a3:6e:4c:18:16:ca:cb:1d:
                    d1:f4:ed:4c:e8:6e:44:19:84:ff:f0:45:e4:60:e4:
                    1c:06:9c:5a:e1:21:78:ac:48:79:5e:9a:e2:f3:07:
                    a8:54:9a:c8:6e:1f:71:f8:17:e1:d2:f9:9c:3f:8f:
                    b9:98:f4:65:7e:c2:30:27:31:17:9e:10:9a:d1:5c:
                    b3:64:f9:4f:b3:a1:a1:bb:4c:e3:7e:28:89:67:c9:
                    72:64:f6:14:ca:fd:9d:b0:80:a7:20:10:04:8b:1d:
                    8a:0e:1b:e7:b9:c5:0c:70:02:23:c1:ae:2c:d9:6e:
                    bd:d5:8c:a8:16:93:55:18:a0:2a:ef:cd:2c:6b:60:
                    2c:70:9d:e4:e1:f9:ef:76:b4:86:1d:c9:a4:44:eb:
                    f2:c6:48:80:0b:de:d3:ea:64:5f:3b:a6:44:85:01:
                    07:76:fe:14:58:44:58:73:b0:de:d8:c9:ed:43:0c:
                    48:ad:ec:e0:2d:97:dd:a1:ec:dd:d8:d4:c8:6a:97:
                    91:f3:6c:e8:e5:c2:e0:02:78:e1:f4:f9:6b:d2:92:
                    36:1a:c6:44:8a:06:d2:53:03:ab:c4:5a:eb:b1:00:
                    a7:91:73:6d:d4:69:b6:06:72:26:4d:73:b3:4b:69:
                    a2:b1:a1:fe:70:84:06:be:6b:fb:84:44:7d:23:41:
                    b7:bd
                Exponent: 65537 (0x10001)
        X509v3 extensions:
            X509v3 Key Usage: critical
                Digital Signature, Key Encipherment
            X509v3 Basic Constraints: 
                CA:FALSE
            X509v3 Extended Key Usage: 
                TLS Web Server Authentication, TLS Web Client Authentication
            X509v3 Subject Key Identifier: 
                A6:5D:EB:C3:29:60:5D:2D:23:C8:A8:C4:79:89:08:DA:8C:59:B1:3A
            X509v3 Authority Key Identifier: 
                keyid:CC:B7:52:54:17:D5:52:90:95:6E:A6:B1:A9:10:57:38:0F:AE:E2:61

            Authority Information Access: 
                CA Issuers - URI:http://sstrain.com/ca/tls-ca.cer

            X509v3 CRL Distribution Points: 

                Full Name:
                  URI:http://sstrain.com/ca/tls-ca.crl

            X509v3 Subject Alternative Name: 
                DNS:yourdomain.tld
    Signature Algorithm: sha1WithRSAEncryption
         28:41:40:53:71:7b:3b:24:d7:b5:f9:95:e0:40:1b:78:d0:4a:
         d6:b3:7b:a0:c7:5a:38:a5:c4:fe:7a:86:1a:50:56:4c:5a:13:
         af:a8:56:4a:8f:f9:47:67:e7:7d:66:48:eb:66:9d:ae:cf:d7:
         f8:40:74:7a:a6:db:7f:32:a6:d0:3c:92:0e:bc:a3:eb:7f:e5:
         79:d1:57:8b:bf:dc:74:2b:ce:f0:61:63:49:fa:1d:34:11:12:
         b6:1c:be:1a:ad:05:06:00:d4:f3:d6:27:ab:87:65:53:a6:04:
         23:e1:fd:e0:8a:4a:f8:65:c9:f7:70:90:8e:da:a6:f5:50:20:
         7e:85:16:1e:dc:63:cb:22:ae:9a:e9:f8:27:fd:1f:dc:9f:90:
         58:4a:67:a0:bc:51:fc:9b:13:55:a0:66:c5:cc:59:e8:4c:03:
         9c:03:b4:1b:d9:55:c9:5c:f6:9d:0f:a2:d8:a3:93:61:eb:44:
         ef:ef:77:b9:e7:ba:79:40:98:86:c2:09:75:b8:5f:e1:b2:46:
         63:c9:5f:09:ad:49:c0:23:97:27:80:d7:2a:85:b8:f0:b1:73:
         55:1c:e6:b6:4e:fa:98:30:4c:d2:8c:58:4b:e0:e3:ba:2b:98:
         b0:ca:0f:a6:8b:b6:16:14:6c:9d:dd:42:12:8b:e8:4b:4e:97:
         d7:e0:60:39
-----BEGIN CERTIFICATE-----
MIIEKjCCAxKgAwIBAgIBATANBgkqhkiG9w0BAQUFADBnMQswCQYDVQQGEwJVUzET
MBEGA1UECgwKU1NUcmFpbiBBUzEqMCgGA1UECwwhU1NUcmFpbiBUTFMgQ2VydGlm
aWNhdGUgQXV0aG9yaXR5MRcwFQYDVQQDDA5TU1RyYWluIFRMUyBDQTAeFw0yMjAy
MDkxNTI4MDdaFw0yNDAyMDkxNTI4MDdaMDwxCzAJBgNVBAYTAlVTMRMwEQYDVQQK
DApTU1RyYWluIEFTMRgwFgYDVQQDDA93d3cuc3N0cmFpbi5jb20wggEiMA0GCSqG
SIb3DQEBAQUAA4IBDwAwggEKAoIBAQCpjQ1jtjWjbkwYFsrLHdH07UzobkQZhP/w
ReRg5BwGnFrhIXisSHlemuLzB6hUmshuH3H4F+HS+Zw/j7mY9GV+wjAnMReeEJrR
XLNk+U+zoaG7TON+KIlnyXJk9hTK/Z2wgKcgEASLHYoOG+e5xQxwAiPBrizZbr3V
jKgWk1UYoCrvzSxrYCxwneTh+e92tIYdyaRE6/LGSIAL3tPqZF87pkSFAQd2/hRY
RFhzsN7Yye1DDEit7OAtl92h7N3Y1Mhql5HzbOjlwuACeOH0+WvSkjYaxkSKBtJT
A6vEWuuxAKeRc23UabYGciZNc7NLaaKxof5whAa+a/uERH0jQbe9AgMBAAGjggEK
MIIBBjAOBgNVHQ8BAf8EBAMCBaAwCQYDVR0TBAIwADAdBgNVHSUEFjAUBggrBgEF
BQcDAQYIKwYBBQUHAwIwHQYDVR0OBBYEFKZd68MpYF0tI8ioxHmJCNqMWbE6MB8G
A1UdIwQYMBaAFMy3UlQX1VKQlW6msakQVzgPruJhMDwGCCsGAQUFBwEBBDAwLjAs
BggrBgEFBQcwAoYgaHR0cDovL3NzdHJhaW4uY29tL2NhL3Rscy1jYS5jZXIwMQYD
VR0fBCowKDAmoCSgIoYgaHR0cDovL3NzdHJhaW4uY29tL2NhL3Rscy1jYS5jcmww
GQYDVR0RBBIwEIIOeW91cmRvbWFpbi50bGQwDQYJKoZIhvcNAQEFBQADggEBAChB
QFNxezsk17X5leBAG3jQStaze6DHWjilxP56hhpQVkxaE6+oVkqP+Udn531mSOtm
na7P1/hAdHqm238yptA8kg68o+t/5XnRV4u/3HQrzvBhY0n6HTQRErYcvhqtBQYA
1PPWJ6uHZVOmBCPh/eCKSvhlyfdwkI7apvVQIH6FFh7cY8sirprp+Cf9H9yfkFhK
Z6C8UfybE1WgZsXMWehMA5wDtBvZVclc9p0Potijk2HrRO/vd7nnunlAmIbCCXW4
X+GyRmPJXwmtScAjlyeA1yqFuPCxc1Uc5rZO+pgwTNKMWEvg47ormLDKD6aLthYU
bJ3dQhKL6EtOl9fgYDk=
-----END CERTIFICATE-----
