Certificate:
    Data:
        Version: 3 (0x2)
        Serial Number: 3 (0x3)
        Signature Algorithm: sha1WithRSAEncryption
        Issuer: C=US, O=SSTrain AS, OU=SSTrain Root Certificate Authority, CN=SSTrain Root CA
        Validity
            Not Before: Feb  9 14:21:22 2022 GMT
            Not After : Feb  9 14:21:22 2032 GMT
        Subject: C=US, O=SSTrain AS, OU=SSTrain Docsign Certificate Authority, CN=SSTrain Docsign CA
        Subject Public Key Info:
            Public Key Algorithm: rsaEncryption
                RSA Public-Key: (2048 bit)
                Modulus:
                    00:ee:11:d0:3b:ee:73:54:fd:6b:e2:74:f3:6d:cf:
                    4b:e2:30:d7:80:fa:58:34:38:54:d6:f3:54:60:ad:
                    98:97:f3:c2:a5:60:f8:af:ba:fb:11:0b:f0:8d:2d:
                    02:d2:bf:6f:f4:e4:41:16:bf:8a:92:94:68:cd:61:
                    a2:f7:9d:2f:e1:7c:96:ee:ee:a6:72:03:2f:70:0a:
                    65:a7:98:83:54:64:63:04:15:a0:b9:e6:c0:3d:8c:
                    27:bb:28:5c:a8:7d:02:82:a2:2a:bb:3c:df:b7:10:
                    4b:41:ed:17:55:af:e9:d9:bf:04:49:f8:bb:c1:c0:
                    2b:4b:8d:d4:d4:14:e5:77:ab:26:62:61:22:22:3d:
                    12:45:a5:26:09:1b:6a:06:ca:2e:90:16:44:10:cf:
                    4e:6f:f2:66:a1:94:7e:a0:39:e7:b3:4c:ca:07:91:
                    7b:de:9f:2a:3d:69:0a:d3:0a:26:c6:81:33:9f:53:
                    b5:36:36:58:38:39:e2:ad:05:36:7f:a0:c0:15:6e:
                    84:99:7f:5b:86:30:e7:4e:ce:d3:e2:fd:e4:32:fb:
                    a8:20:a7:a0:0e:81:6a:17:6b:dd:eb:02:36:f1:24:
                    f9:d0:b0:80:a2:9e:1c:da:b4:ec:18:f2:36:3e:6e:
                    84:5b:ed:e3:47:62:3f:43:5e:c0:35:54:b2:87:4c:
                    75:ef
                Exponent: 65537 (0x10001)
        X509v3 extensions:
            X509v3 Key Usage: critical
                Certificate Sign, CRL Sign
            X509v3 Basic Constraints: critical
                CA:TRUE, pathlen:0
            X509v3 Subject Key Identifier: 
                9A:14:19:20:AE:7B:7F:BE:68:8B:AF:B1:EA:71:2A:9B:B3:6D:DD:50
            X509v3 Authority Key Identifier: 
                keyid:71:AC:80:6E:AF:0F:45:D6:C8:82:40:13:15:B4:18:36:09:5D:E0:D0

            Authority Information Access: 
                CA Issuers - URI:http://sstrain.com/ca/root-ca.cer

            X509v3 CRL Distribution Points: 

                Full Name:
                  URI:http://sstrain.com/ca/root-ca.crl

    Signature Algorithm: sha1WithRSAEncryption
         3d:07:6d:04:8f:c5:fb:5e:15:99:b4:a5:8f:99:65:44:9b:90:
         46:47:d8:11:81:30:14:0f:96:17:3c:a0:c6:7f:18:dc:b6:6c:
         3e:7a:48:8e:ec:a8:73:89:c4:8c:07:48:5a:67:b8:15:8d:ee:
         7a:02:2e:eb:45:26:9e:33:41:cb:d1:a7:7b:38:0c:cd:2c:56:
         0c:87:1a:98:43:31:83:d1:5c:d6:30:33:0d:e9:41:0d:c6:0d:
         0a:63:cf:49:cc:18:c0:93:c6:e9:69:c1:d3:09:6e:89:81:1e:
         e5:84:dd:ee:2d:31:76:c4:a8:79:dc:dd:f9:be:8f:02:75:e2:
         eb:ab:e3:6a:ed:3d:46:f3:61:0c:be:25:8a:24:36:41:ce:72:
         7c:b6:a4:b4:2e:f5:24:84:52:38:20:ed:ee:3a:68:5e:03:fe:
         46:8d:a3:61:4a:a8:c6:57:f8:78:03:16:bf:8c:eb:08:59:cb:
         88:03:4e:54:b2:85:17:ac:4f:2f:03:a7:a0:3c:8b:41:a3:ed:
         58:4d:d6:60:23:ef:ff:a3:4a:7b:63:07:3e:48:59:5c:a8:0f:
         11:77:34:16:bb:df:49:48:a1:f7:ef:ff:bc:36:83:d7:6c:b6:
         48:87:b8:65:64:ab:00:ac:5d:85:54:2b:fd:10:2f:ae:3f:f6:
         4c:4d:c4:75
-----BEGIN CERTIFICATE-----
MIIELjCCAxagAwIBAgIBAzANBgkqhkiG9w0BAQUFADBpMQswCQYDVQQGEwJVUzET
MBEGA1UECgwKU1NUcmFpbiBBUzErMCkGA1UECwwiU1NUcmFpbiBSb290IENlcnRp
ZmljYXRlIEF1dGhvcml0eTEYMBYGA1UEAwwPU1NUcmFpbiBSb290IENBMB4XDTIy
MDIwOTE0MjEyMloXDTMyMDIwOTE0MjEyMlowbzELMAkGA1UEBhMCVVMxEzARBgNV
BAoMClNTVHJhaW4gQVMxLjAsBgNVBAsMJVNTVHJhaW4gRG9jc2lnbiBDZXJ0aWZp
Y2F0ZSBBdXRob3JpdHkxGzAZBgNVBAMMElNTVHJhaW4gRG9jc2lnbiBDQTCCASIw
DQYJKoZIhvcNAQEBBQADggEPADCCAQoCggEBAO4R0Dvuc1T9a+J0823PS+Iw14D6
WDQ4VNbzVGCtmJfzwqVg+K+6+xEL8I0tAtK/b/TkQRa/ipKUaM1hovedL+F8lu7u
pnIDL3AKZaeYg1RkYwQVoLnmwD2MJ7soXKh9AoKiKrs837cQS0HtF1Wv6dm/BEn4
u8HAK0uN1NQU5XerJmJhIiI9EkWlJgkbagbKLpAWRBDPTm/yZqGUfqA557NMygeR
e96fKj1pCtMKJsaBM59TtTY2WDg54q0FNn+gwBVuhJl/W4Yw507O0+L95DL7qCCn
oA6Bahdr3esCNvEk+dCwgKKeHNq07BjyNj5uhFvt40diP0NewDVUsodMde8CAwEA
AaOB2jCB1zAOBgNVHQ8BAf8EBAMCAQYwEgYDVR0TAQH/BAgwBgEB/wIBADAdBgNV
HQ4EFgQUmhQZIK57f75oi6+x6nEqm7Nt3VAwHwYDVR0jBBgwFoAUcayAbq8PRdbI
gkATFbQYNgld4NAwPQYIKwYBBQUHAQEEMTAvMC0GCCsGAQUFBzAChiFodHRwOi8v
c3N0cmFpbi5jb20vY2Evcm9vdC1jYS5jZXIwMgYDVR0fBCswKTAnoCWgI4YhaHR0
cDovL3NzdHJhaW4uY29tL2NhL3Jvb3QtY2EuY3JsMA0GCSqGSIb3DQEBBQUAA4IB
AQA9B20Ej8X7XhWZtKWPmWVEm5BGR9gRgTAUD5YXPKDGfxjctmw+ekiO7KhzicSM
B0haZ7gVje56Ai7rRSaeM0HL0ad7OAzNLFYMhxqYQzGD0VzWMDMN6UENxg0KY89J
zBjAk8bpacHTCW6JgR7lhN3uLTF2xKh53N35vo8CdeLrq+Nq7T1G82EMviWKJDZB
znJ8tqS0LvUkhFI4IO3uOmheA/5GjaNhSqjGV/h4Axa/jOsIWcuIA05UsoUXrE8v
A6egPItBo+1YTdZgI+//o0p7Ywc+SFlcqA8RdzQWu99JSKH37/+8NoPXbLZIh7hl
ZKsArF2FVCv9EC+uP/ZMTcR1
-----END CERTIFICATE-----
Certificate:
    Data:
        Version: 3 (0x2)
        Serial Number: 2 (0x2)
        Signature Algorithm: sha1WithRSAEncryption
        Issuer: C=US, O=SSTrain AS, OU=SSTrain Root Certificate Authority, CN=SSTrain Root CA
        Validity
            Not Before: Feb  9 14:12:27 2022 GMT
            Not After : Dec 31 23:59:59 2030 GMT
        Subject: C=US, O=SSTrain AS, OU=SSTrain Root Certificate Authority, CN=SSTrain Root CA
        Subject Public Key Info:
            Public Key Algorithm: rsaEncryption
                RSA Public-Key: (2048 bit)
                Modulus:
                    00:ba:9c:86:1b:4c:3f:bd:06:e5:91:15:29:c0:45:
                    b7:76:f1:13:61:c7:55:97:a8:c5:ff:d9:e7:d8:64:
                    9f:5c:6d:39:07:df:29:b7:cb:b6:3e:3d:89:eb:43:
                    09:d7:99:5f:0a:1d:1b:d8:b5:22:98:a8:2c:8d:5b:
                    d6:3b:60:37:1f:e7:19:7a:c3:10:97:2e:a9:24:9f:
                    43:54:9f:02:c6:76:64:9b:70:cf:d8:56:c0:b2:82:
                    df:6a:e4:d0:c9:4b:1d:67:57:42:e3:b8:bd:7b:27:
                    66:25:67:7d:b8:3f:6d:3d:3b:34:27:34:f2:93:24:
                    d4:99:0b:55:a8:ec:bf:90:f9:0c:2a:b8:1c:07:89:
                    57:45:6e:54:8b:0f:ab:a8:55:5e:1d:2f:ba:cb:68:
                    8e:7e:ea:a1:7d:ae:a7:6f:1a:a5:f0:73:14:ea:1a:
                    e6:da:c0:e1:51:a4:00:80:27:bc:2f:d2:74:08:ea:
                    88:30:66:a6:38:15:79:b3:2b:bb:f3:db:e5:ef:be:
                    44:d3:f8:7c:4b:50:8a:33:29:ef:c7:3d:24:82:c5:
                    14:38:f9:4a:21:91:e0:23:c0:33:16:e7:91:ca:82:
                    d1:e8:17:6e:62:a6:45:25:6f:3e:b8:e3:13:8f:c8:
                    ef:96:da:9a:21:08:49:6e:9a:a9:10:ee:32:da:3d:
                    8d:61
                Exponent: 65537 (0x10001)
        X509v3 extensions:
            X509v3 Key Usage: critical
                Digital Signature, Certificate Sign, CRL Sign
            X509v3 Basic Constraints: critical
                CA:TRUE
            X509v3 Subject Key Identifier: 
                71:AC:80:6E:AF:0F:45:D6:C8:82:40:13:15:B4:18:36:09:5D:E0:D0
            X509v3 Authority Key Identifier: 
                keyid:71:AC:80:6E:AF:0F:45:D6:C8:82:40:13:15:B4:18:36:09:5D:E0:D0

    Signature Algorithm: sha1WithRSAEncryption
         69:99:82:ce:5e:b7:c5:76:d8:50:3d:da:3d:2d:3c:be:12:c8:
         af:ec:9b:1c:3e:dc:c1:66:48:af:68:9e:8e:12:fb:72:64:a3:
         7e:3c:af:fb:2c:ce:1a:04:0a:e3:3b:56:93:7f:a1:93:89:15:
         45:3a:cf:2b:22:a7:1b:d4:38:9f:a8:64:7d:b4:73:6e:d5:72:
         43:fb:90:94:4b:ad:ed:e6:e0:ba:fd:62:fb:c2:a5:86:85:25:
         f2:a1:6b:b9:78:15:98:8b:0b:a2:c9:9b:18:40:6a:eb:b1:08:
         3c:5a:ef:29:e2:da:92:98:10:c6:93:b6:4b:9a:e6:6c:a5:ad:
         87:ad:c5:5a:55:e5:52:44:c2:ec:83:df:3d:68:e8:f1:2d:44:
         95:09:72:79:57:c4:bb:b6:af:88:ad:77:b3:cc:aa:9e:47:53:
         fb:77:d4:a9:ce:f9:b9:64:42:fe:24:ab:2d:bf:f3:68:3d:d4:
         9c:79:ff:3d:d9:fe:8a:72:8f:80:5c:d9:0e:99:cf:7d:c9:58:
         b0:50:47:93:27:d9:ec:56:17:22:0a:e9:cb:6e:2b:cd:49:9b:
         81:db:97:95:e6:1d:12:f8:84:85:1b:1a:cf:4f:37:01:01:46:
         e9:37:aa:28:d8:8d:7e:38:a0:95:79:76:23:ea:ac:f9:8f:50:
         41:c0:a7:c2
-----BEGIN CERTIFICATE-----
MIIDsDCCApigAwIBAgIBAjANBgkqhkiG9w0BAQUFADBpMQswCQYDVQQGEwJVUzET
MBEGA1UECgwKU1NUcmFpbiBBUzErMCkGA1UECwwiU1NUcmFpbiBSb290IENlcnRp
ZmljYXRlIEF1dGhvcml0eTEYMBYGA1UEAwwPU1NUcmFpbiBSb290IENBMB4XDTIy
MDIwOTE0MTIyN1oXDTMwMTIzMTIzNTk1OVowaTELMAkGA1UEBhMCVVMxEzARBgNV
BAoMClNTVHJhaW4gQVMxKzApBgNVBAsMIlNTVHJhaW4gUm9vdCBDZXJ0aWZpY2F0
ZSBBdXRob3JpdHkxGDAWBgNVBAMMD1NTVHJhaW4gUm9vdCBDQTCCASIwDQYJKoZI
hvcNAQEBBQADggEPADCCAQoCggEBALqchhtMP70G5ZEVKcBFt3bxE2HHVZeoxf/Z
59hkn1xtOQffKbfLtj49ietDCdeZXwodG9i1IpioLI1b1jtgNx/nGXrDEJcuqSSf
Q1SfAsZ2ZJtwz9hWwLKC32rk0MlLHWdXQuO4vXsnZiVnfbg/bT07NCc08pMk1JkL
Vajsv5D5DCq4HAeJV0VuVIsPq6hVXh0vustojn7qoX2up28apfBzFOoa5trA4VGk
AIAnvC/SdAjqiDBmpjgVebMru/Pb5e++RNP4fEtQijMp78c9JILFFDj5SiGR4CPA
MxbnkcqC0egXbmKmRSVvPrjjE4/I75bamiEISW6aqRDuMto9jWECAwEAAaNjMGEw
DgYDVR0PAQH/BAQDAgGGMA8GA1UdEwEB/wQFMAMBAf8wHQYDVR0OBBYEFHGsgG6v
D0XWyIJAExW0GDYJXeDQMB8GA1UdIwQYMBaAFHGsgG6vD0XWyIJAExW0GDYJXeDQ
MA0GCSqGSIb3DQEBBQUAA4IBAQBpmYLOXrfFdthQPdo9LTy+Esiv7JscPtzBZkiv
aJ6OEvtyZKN+PK/7LM4aBArjO1aTf6GTiRVFOs8rIqcb1DifqGR9tHNu1XJD+5CU
S63t5uC6/WL7wqWGhSXyoWu5eBWYiwuiyZsYQGrrsQg8Wu8p4tqSmBDGk7ZLmuZs
pa2HrcVaVeVSRMLsg989aOjxLUSVCXJ5V8S7tq+IrXezzKqeR1P7d9Spzvm5ZEL+
JKstv/NoPdScef892f6Kco+AXNkOmc99yViwUEeTJ9nsVhciCunLbivNSZuB25eV
5h0S+ISFGxrPTzcBAUbpN6oo2I1+OKCVeXYj6qz5j1BBwKfC
-----END CERTIFICATE-----
