Certificate:
    Data:
        Version: 3 (0x2)
        Serial Number: 5 (0x5)
        Signature Algorithm: sha1WithRSAEncryption
        Issuer: C=US, O=SSTrain AS, OU=SSTrain Root Certificate Authority, CN=SSTrain Root CA
        Validity
            Not Before: Feb  9 15:22:01 2022 GMT
            Not After : Feb  9 15:22:01 2032 GMT
        Subject: C=US, O=SSTrain AS, OU=SSTrain TLS Certificate Authority, CN=SSTrain TLS CA
        Subject Public Key Info:
            Public Key Algorithm: rsaEncryption
                RSA Public-Key: (2048 bit)
                Modulus:
                    00:ec:38:37:9d:9c:4f:44:46:72:f5:00:5d:a1:39:
                    c4:26:31:be:76:aa:c9:39:11:97:f6:c1:a6:3e:ed:
                    bf:10:79:28:3e:cf:92:60:2b:36:d7:cf:69:63:76:
                    56:fa:c5:d1:13:40:6e:4d:61:43:e1:7f:0a:99:08:
                    1f:f0:18:da:e9:be:a4:cb:1b:11:9c:1b:02:e2:c1:
                    96:5a:9b:b3:8c:d1:46:4e:a5:0e:25:4f:d3:0b:a2:
                    97:6e:08:20:49:45:db:ab:5f:77:69:96:e0:22:16:
                    be:fe:cd:80:09:f4:b8:cb:59:6c:dc:db:06:c4:cb:
                    1f:77:d2:09:ab:1f:2a:1e:69:e4:ea:c7:f3:db:d2:
                    3a:99:b5:28:ef:e7:8d:db:a6:cb:53:f6:3e:53:35:
                    5b:3e:82:00:79:65:d0:e6:d4:93:da:6e:9e:b7:16:
                    f0:20:98:17:00:eb:f4:55:d7:75:7c:cd:37:25:45:
                    23:b7:14:da:96:b4:0b:6d:f9:04:af:7a:87:5d:f4:
                    76:23:1e:d9:e8:cb:db:51:da:7d:56:ce:a9:61:8f:
                    7d:a4:a5:b6:11:04:6c:91:dd:67:50:29:22:c5:7c:
                    e1:fc:89:ab:82:f9:33:05:96:2d:1c:10:00:de:a6:
                    55:d5:11:f0:da:f0:fa:b1:64:b6:d7:fa:2a:d4:02:
                    cb:0f
                Exponent: 65537 (0x10001)
        X509v3 extensions:
            X509v3 Key Usage: critical
                Certificate Sign, CRL Sign
            X509v3 Basic Constraints: critical
                CA:TRUE, pathlen:0
            X509v3 Subject Key Identifier: 
                CC:B7:52:54:17:D5:52:90:95:6E:A6:B1:A9:10:57:38:0F:AE:E2:61
            X509v3 Authority Key Identifier: 
                keyid:71:AC:80:6E:AF:0F:45:D6:C8:82:40:13:15:B4:18:36:09:5D:E0:D0

            Authority Information Access: 
                CA Issuers - URI:http://sstrain.com/ca/root-ca.cer

            X509v3 CRL Distribution Points: 

                Full Name:
                  URI:http://sstrain.com/ca/root-ca.crl

    Signature Algorithm: sha1WithRSAEncryption
         04:9d:36:51:8d:91:32:2e:14:ae:b1:06:e3:03:1d:39:32:24:
         f2:52:ef:cf:5e:8f:73:39:d2:7a:a6:38:ab:33:50:0e:cb:93:
         fd:12:0e:51:b3:cc:36:81:44:61:54:29:70:63:41:0b:d6:38:
         c1:ea:f3:6b:aa:1d:3b:04:b8:8c:83:57:e8:78:e0:9c:33:a5:
         87:0e:31:65:84:51:e3:76:07:28:8a:f4:b2:91:73:a3:22:f0:
         6a:b6:82:da:48:4d:f0:f9:93:0f:af:82:7b:08:37:74:a2:82:
         d3:fd:de:25:91:27:80:d1:b1:12:4d:6a:99:2e:a0:d7:d2:9d:
         e0:8e:49:98:7e:99:98:74:d4:e1:5f:a2:5a:38:9d:28:cd:4a:
         42:d4:f0:68:84:23:31:e2:84:c3:50:9d:e9:9f:c3:2d:f2:a8:
         1f:3b:c2:43:28:91:b8:0c:29:53:bd:4f:13:c1:31:c9:fd:a0:
         2e:4e:55:cc:ea:df:10:8d:ae:fe:28:9d:85:51:88:59:64:3c:
         7a:9e:67:0d:b7:c0:5d:05:e5:3e:d4:c5:38:33:ff:61:71:dc:
         52:57:62:2e:f5:e2:ee:9c:92:08:9f:07:77:89:d0:1d:54:aa:
         be:14:6a:30:c6:34:f2:96:23:28:38:54:37:87:77:f7:ef:f2:
         0f:99:29:b9
-----BEGIN CERTIFICATE-----
MIIEJjCCAw6gAwIBAgIBBTANBgkqhkiG9w0BAQUFADBpMQswCQYDVQQGEwJVUzET
MBEGA1UECgwKU1NUcmFpbiBBUzErMCkGA1UECwwiU1NUcmFpbiBSb290IENlcnRp
ZmljYXRlIEF1dGhvcml0eTEYMBYGA1UEAwwPU1NUcmFpbiBSb290IENBMB4XDTIy
MDIwOTE1MjIwMVoXDTMyMDIwOTE1MjIwMVowZzELMAkGA1UEBhMCVVMxEzARBgNV
BAoMClNTVHJhaW4gQVMxKjAoBgNVBAsMIVNTVHJhaW4gVExTIENlcnRpZmljYXRl
IEF1dGhvcml0eTEXMBUGA1UEAwwOU1NUcmFpbiBUTFMgQ0EwggEiMA0GCSqGSIb3
DQEBAQUAA4IBDwAwggEKAoIBAQDsODednE9ERnL1AF2hOcQmMb52qsk5EZf2waY+
7b8QeSg+z5JgKzbXz2ljdlb6xdETQG5NYUPhfwqZCB/wGNrpvqTLGxGcGwLiwZZa
m7OM0UZOpQ4lT9MLopduCCBJRdurX3dpluAiFr7+zYAJ9LjLWWzc2wbEyx930gmr
HyoeaeTqx/Pb0jqZtSjv543bpstT9j5TNVs+ggB5ZdDm1JPabp63FvAgmBcA6/RV
13V8zTclRSO3FNqWtAtt+QSveodd9HYjHtnoy9tR2n1Wzqlhj32kpbYRBGyR3WdQ
KSLFfOH8iauC+TMFli0cEADeplXVEfDa8PqxZLbX+irUAssPAgMBAAGjgdowgdcw
DgYDVR0PAQH/BAQDAgEGMBIGA1UdEwEB/wQIMAYBAf8CAQAwHQYDVR0OBBYEFMy3
UlQX1VKQlW6msakQVzgPruJhMB8GA1UdIwQYMBaAFHGsgG6vD0XWyIJAExW0GDYJ
XeDQMD0GCCsGAQUFBwEBBDEwLzAtBggrBgEFBQcwAoYhaHR0cDovL3NzdHJhaW4u
Y29tL2NhL3Jvb3QtY2EuY2VyMDIGA1UdHwQrMCkwJ6AloCOGIWh0dHA6Ly9zc3Ry
YWluLmNvbS9jYS9yb290LWNhLmNybDANBgkqhkiG9w0BAQUFAAOCAQEABJ02UY2R
Mi4UrrEG4wMdOTIk8lLvz16PcznSeqY4qzNQDsuT/RIOUbPMNoFEYVQpcGNBC9Y4
werza6odOwS4jINX6HjgnDOlhw4xZYRR43YHKIr0spFzoyLwaraC2khN8PmTD6+C
ewg3dKKC0/3eJZEngNGxEk1qmS6g19Kd4I5JmH6ZmHTU4V+iWjidKM1KQtTwaIQj
MeKEw1Cd6Z/DLfKoHzvCQyiRuAwpU71PE8Exyf2gLk5VzOrfEI2u/iidhVGIWWQ8
ep5nDbfAXQXlPtTFODP/YXHcUldiLvXi7pySCJ8Hd4nQHVSqvhRqMMY08pYjKDhU
N4d39+/yD5kpuQ==
-----END CERTIFICATE-----
Certificate:
    Data:
        Version: 3 (0x2)
        Serial Number: 2 (0x2)
        Signature Algorithm: sha1WithRSAEncryption
        Issuer: C=US, O=SSTrain AS, OU=SSTrain Root Certificate Authority, CN=SSTrain Root CA
        Validity
            Not Before: Feb  9 14:12:27 2022 GMT
            Not After : Dec 31 23:59:59 2030 GMT
        Subject: C=US, O=SSTrain AS, OU=SSTrain Root Certificate Authority, CN=SSTrain Root CA
        Subject Public Key Info:
            Public Key Algorithm: rsaEncryption
                RSA Public-Key: (2048 bit)
                Modulus:
                    00:ba:9c:86:1b:4c:3f:bd:06:e5:91:15:29:c0:45:
                    b7:76:f1:13:61:c7:55:97:a8:c5:ff:d9:e7:d8:64:
                    9f:5c:6d:39:07:df:29:b7:cb:b6:3e:3d:89:eb:43:
                    09:d7:99:5f:0a:1d:1b:d8:b5:22:98:a8:2c:8d:5b:
                    d6:3b:60:37:1f:e7:19:7a:c3:10:97:2e:a9:24:9f:
                    43:54:9f:02:c6:76:64:9b:70:cf:d8:56:c0:b2:82:
                    df:6a:e4:d0:c9:4b:1d:67:57:42:e3:b8:bd:7b:27:
                    66:25:67:7d:b8:3f:6d:3d:3b:34:27:34:f2:93:24:
                    d4:99:0b:55:a8:ec:bf:90:f9:0c:2a:b8:1c:07:89:
                    57:45:6e:54:8b:0f:ab:a8:55:5e:1d:2f:ba:cb:68:
                    8e:7e:ea:a1:7d:ae:a7:6f:1a:a5:f0:73:14:ea:1a:
                    e6:da:c0:e1:51:a4:00:80:27:bc:2f:d2:74:08:ea:
                    88:30:66:a6:38:15:79:b3:2b:bb:f3:db:e5:ef:be:
                    44:d3:f8:7c:4b:50:8a:33:29:ef:c7:3d:24:82:c5:
                    14:38:f9:4a:21:91:e0:23:c0:33:16:e7:91:ca:82:
                    d1:e8:17:6e:62:a6:45:25:6f:3e:b8:e3:13:8f:c8:
                    ef:96:da:9a:21:08:49:6e:9a:a9:10:ee:32:da:3d:
                    8d:61
                Exponent: 65537 (0x10001)
        X509v3 extensions:
            X509v3 Key Usage: critical
                Digital Signature, Certificate Sign, CRL Sign
            X509v3 Basic Constraints: critical
                CA:TRUE
            X509v3 Subject Key Identifier: 
                71:AC:80:6E:AF:0F:45:D6:C8:82:40:13:15:B4:18:36:09:5D:E0:D0
            X509v3 Authority Key Identifier: 
                keyid:71:AC:80:6E:AF:0F:45:D6:C8:82:40:13:15:B4:18:36:09:5D:E0:D0

    Signature Algorithm: sha1WithRSAEncryption
         69:99:82:ce:5e:b7:c5:76:d8:50:3d:da:3d:2d:3c:be:12:c8:
         af:ec:9b:1c:3e:dc:c1:66:48:af:68:9e:8e:12:fb:72:64:a3:
         7e:3c:af:fb:2c:ce:1a:04:0a:e3:3b:56:93:7f:a1:93:89:15:
         45:3a:cf:2b:22:a7:1b:d4:38:9f:a8:64:7d:b4:73:6e:d5:72:
         43:fb:90:94:4b:ad:ed:e6:e0:ba:fd:62:fb:c2:a5:86:85:25:
         f2:a1:6b:b9:78:15:98:8b:0b:a2:c9:9b:18:40:6a:eb:b1:08:
         3c:5a:ef:29:e2:da:92:98:10:c6:93:b6:4b:9a:e6:6c:a5:ad:
         87:ad:c5:5a:55:e5:52:44:c2:ec:83:df:3d:68:e8:f1:2d:44:
         95:09:72:79:57:c4:bb:b6:af:88:ad:77:b3:cc:aa:9e:47:53:
         fb:77:d4:a9:ce:f9:b9:64:42:fe:24:ab:2d:bf:f3:68:3d:d4:
         9c:79:ff:3d:d9:fe:8a:72:8f:80:5c:d9:0e:99:cf:7d:c9:58:
         b0:50:47:93:27:d9:ec:56:17:22:0a:e9:cb:6e:2b:cd:49:9b:
         81:db:97:95:e6:1d:12:f8:84:85:1b:1a:cf:4f:37:01:01:46:
         e9:37:aa:28:d8:8d:7e:38:a0:95:79:76:23:ea:ac:f9:8f:50:
         41:c0:a7:c2
-----BEGIN CERTIFICATE-----
MIIDsDCCApigAwIBAgIBAjANBgkqhkiG9w0BAQUFADBpMQswCQYDVQQGEwJVUzET
MBEGA1UECgwKU1NUcmFpbiBBUzErMCkGA1UECwwiU1NUcmFpbiBSb290IENlcnRp
ZmljYXRlIEF1dGhvcml0eTEYMBYGA1UEAwwPU1NUcmFpbiBSb290IENBMB4XDTIy
MDIwOTE0MTIyN1oXDTMwMTIzMTIzNTk1OVowaTELMAkGA1UEBhMCVVMxEzARBgNV
BAoMClNTVHJhaW4gQVMxKzApBgNVBAsMIlNTVHJhaW4gUm9vdCBDZXJ0aWZpY2F0
ZSBBdXRob3JpdHkxGDAWBgNVBAMMD1NTVHJhaW4gUm9vdCBDQTCCASIwDQYJKoZI
hvcNAQEBBQADggEPADCCAQoCggEBALqchhtMP70G5ZEVKcBFt3bxE2HHVZeoxf/Z
59hkn1xtOQffKbfLtj49ietDCdeZXwodG9i1IpioLI1b1jtgNx/nGXrDEJcuqSSf
Q1SfAsZ2ZJtwz9hWwLKC32rk0MlLHWdXQuO4vXsnZiVnfbg/bT07NCc08pMk1JkL
Vajsv5D5DCq4HAeJV0VuVIsPq6hVXh0vustojn7qoX2up28apfBzFOoa5trA4VGk
AIAnvC/SdAjqiDBmpjgVebMru/Pb5e++RNP4fEtQijMp78c9JILFFDj5SiGR4CPA
MxbnkcqC0egXbmKmRSVvPrjjE4/I75bamiEISW6aqRDuMto9jWECAwEAAaNjMGEw
DgYDVR0PAQH/BAQDAgGGMA8GA1UdEwEB/wQFMAMBAf8wHQYDVR0OBBYEFHGsgG6v
D0XWyIJAExW0GDYJXeDQMB8GA1UdIwQYMBaAFHGsgG6vD0XWyIJAExW0GDYJXeDQ
MA0GCSqGSIb3DQEBBQUAA4IBAQBpmYLOXrfFdthQPdo9LTy+Esiv7JscPtzBZkiv
aJ6OEvtyZKN+PK/7LM4aBArjO1aTf6GTiRVFOs8rIqcb1DifqGR9tHNu1XJD+5CU
S63t5uC6/WL7wqWGhSXyoWu5eBWYiwuiyZsYQGrrsQg8Wu8p4tqSmBDGk7ZLmuZs
pa2HrcVaVeVSRMLsg989aOjxLUSVCXJ5V8S7tq+IrXezzKqeR1P7d9Spzvm5ZEL+
JKstv/NoPdScef892f6Kco+AXNkOmc99yViwUEeTJ9nsVhciCunLbivNSZuB25eV
5h0S+ISFGxrPTzcBAUbpN6oo2I1+OKCVeXYj6qz5j1BBwKfC
-----END CERTIFICATE-----
