Certificate:
    Data:
        Version: 3 (0x2)
        Serial Number: 1 (0x1)
        Signature Algorithm: sha1WithRSAEncryption
        Issuer: C=US, O=SmoothStack, OU=SmoothStack Certificate Authority, CN=SmoothStack Root CA
        Validity
            Not Before: Mar 24 20:24:58 2022 GMT
            Not After : Dec 31 23:59:59 2030 GMT
        Subject: C=US, O=SmoothStack, OU=SmoothStack Certificate Authority, CN=SmoothStack Root CA
        Subject Public Key Info:
            Public Key Algorithm: rsaEncryption
                RSA Public-Key: (2048 bit)
                Modulus:
                    00:d2:d0:1a:f8:06:f8:99:9c:3c:2c:b3:76:06:43:
                    49:59:26:a1:21:b5:23:1b:d1:30:6f:a2:a9:95:28:
                    49:f0:2e:2e:5a:23:d1:51:55:aa:6a:8f:43:b5:e8:
                    40:25:84:d6:ca:91:03:7c:a7:5c:87:53:4d:2b:4d:
                    98:84:8a:ca:b0:42:5e:45:6e:82:d4:69:9d:23:99:
                    59:98:7e:97:8d:db:60:bb:36:c6:1c:a1:d0:1f:5b:
                    d0:cb:39:16:32:c4:26:f7:f6:f1:aa:66:1f:35:a9:
                    a8:cc:be:58:a2:69:41:28:f0:d7:74:3a:90:c1:db:
                    47:11:8a:9a:26:f3:c9:24:1a:41:90:4f:d3:30:18:
                    fc:38:42:2a:36:d1:02:42:80:12:ce:79:cc:b3:b1:
                    b9:8e:ad:32:34:06:8c:ae:45:a8:99:33:9c:12:1a:
                    28:f3:e7:4d:a7:b3:f9:00:3c:ac:9f:d8:ab:0e:48:
                    a0:48:15:68:1e:fc:bc:9c:e0:1b:03:10:bd:c3:f1:
                    eb:29:d7:e1:68:e7:01:ab:05:a9:2f:2a:8a:d1:7f:
                    6b:f0:5f:ad:68:05:3e:81:b4:00:e5:b1:7a:3f:3a:
                    1a:21:9e:75:ab:d1:1a:ad:cb:02:cf:c9:ab:be:1a:
                    f9:8b:5c:82:98:bb:5a:c7:07:9b:40:6c:b0:29:97:
                    71:6d
                Exponent: 65537 (0x10001)
        X509v3 extensions:
            X509v3 Key Usage: critical
                Certificate Sign, CRL Sign
            X509v3 Basic Constraints: critical
                CA:TRUE
            X509v3 Subject Key Identifier: 
                8A:3F:50:32:4F:59:17:9A:35:04:01:92:38:F2:C5:CB:4D:35:A0:3F
            X509v3 Authority Key Identifier: 
                keyid:8A:3F:50:32:4F:59:17:9A:35:04:01:92:38:F2:C5:CB:4D:35:A0:3F

    Signature Algorithm: sha1WithRSAEncryption
         c4:d6:13:bf:d7:fd:ca:74:7d:8f:34:52:de:5d:40:b6:48:ba:
         5f:69:b6:64:51:36:a7:f3:a1:d8:b4:72:67:9e:72:75:d3:a6:
         78:53:86:ad:1f:59:c6:65:ff:72:0e:07:e9:09:67:43:b4:e1:
         e9:59:c5:74:c1:57:70:37:83:f1:5f:56:1c:cd:bc:9e:f1:ec:
         65:96:6d:14:1c:c1:25:c4:c8:81:7b:ef:a7:51:3b:79:91:f3:
         b1:41:fb:ad:37:02:6d:96:b1:f1:b4:3b:21:7b:e4:14:a7:a4:
         30:6a:79:a4:42:a8:e9:cf:99:04:20:34:1d:b2:da:20:b4:b8:
         b6:74:40:e8:ee:fe:be:00:36:f7:e7:04:ac:d4:a8:39:75:e0:
         43:44:a5:08:3e:09:7d:36:10:1c:c0:fb:ea:22:02:ce:d9:07:
         d0:03:d4:4f:7b:2c:3f:06:f7:00:e3:30:09:94:81:d2:7b:bb:
         92:fd:78:bd:d2:d8:77:3e:29:bb:c1:c7:1f:e1:51:ff:29:b7:
         fc:19:6f:b1:fc:44:54:53:4a:17:3c:11:8e:5a:0b:35:f1:1a:
         2f:a1:31:34:7e:d5:e5:90:9c:1e:1b:11:07:c7:24:05:c3:de:
         4b:a0:79:50:d2:01:61:c6:e5:3b:38:6d:bb:03:78:02:da:62:
         f1:ca:d9:33
-----BEGIN CERTIFICATE-----
MIIDuDCCAqCgAwIBAgIBATANBgkqhkiG9w0BAQUFADBtMQswCQYDVQQGEwJVUzEU
MBIGA1UECgwLU21vb3RoU3RhY2sxKjAoBgNVBAsMIVNtb290aFN0YWNrIENlcnRp
ZmljYXRlIEF1dGhvcml0eTEcMBoGA1UEAwwTU21vb3RoU3RhY2sgUm9vdCBDQTAe
Fw0yMjAzMjQyMDI0NThaFw0zMDEyMzEyMzU5NTlaMG0xCzAJBgNVBAYTAlVTMRQw
EgYDVQQKDAtTbW9vdGhTdGFjazEqMCgGA1UECwwhU21vb3RoU3RhY2sgQ2VydGlm
aWNhdGUgQXV0aG9yaXR5MRwwGgYDVQQDDBNTbW9vdGhTdGFjayBSb290IENBMIIB
IjANBgkqhkiG9w0BAQEFAAOCAQ8AMIIBCgKCAQEA0tAa+Ab4mZw8LLN2BkNJWSah
IbUjG9Ewb6KplShJ8C4uWiPRUVWqao9DtehAJYTWypEDfKdch1NNK02YhIrKsEJe
RW6C1GmdI5lZmH6XjdtguzbGHKHQH1vQyzkWMsQm9/bxqmYfNamozL5YomlBKPDX
dDqQwdtHEYqaJvPJJBpBkE/TMBj8OEIqNtECQoASznnMs7G5jq0yNAaMrkWomTOc
Ehoo8+dNp7P5ADysn9irDkigSBVoHvy8nOAbAxC9w/HrKdfhaOcBqwWpLyqK0X9r
8F+taAU+gbQA5bF6PzoaIZ51q9EarcsCz8mrvhr5i1yCmLtaxwebQGywKZdxbQID
AQABo2MwYTAOBgNVHQ8BAf8EBAMCAQYwDwYDVR0TAQH/BAUwAwEB/zAdBgNVHQ4E
FgQUij9QMk9ZF5o1BAGSOPLFy001oD8wHwYDVR0jBBgwFoAUij9QMk9ZF5o1BAGS
OPLFy001oD8wDQYJKoZIhvcNAQEFBQADggEBAMTWE7/X/cp0fY80Ut5dQLZIul9p
tmRRNqfzodi0cmeecnXTpnhThq0fWcZl/3IOB+kJZ0O04elZxXTBV3A3g/FfVhzN
vJ7x7GWWbRQcwSXEyIF776dRO3mR87FB+603Am2WsfG0OyF75BSnpDBqeaRCqOnP
mQQgNB2y2iC0uLZ0QOju/r4ANvfnBKzUqDl14ENEpQg+CX02EBzA++oiAs7ZB9AD
1E97LD8G9wDjMAmUgdJ7u5L9eL3S2Hc+KbvBxx/hUf8pt/wZb7H8RFRTShc8EY5a
CzXxGi+hMTR+1eWQnB4bEQfHJAXD3kugeVDSAWHG5Ts4bbsDeALaYvHK2TM=
-----END CERTIFICATE-----
