Certificate:
    Data:
        Version: 3 (0x2)
        Serial Number: 1 (0x1)
        Signature Algorithm: sha1WithRSAEncryption
        Issuer: C=US, O=SSTrain AS, OU=SSTrain Docsign Certificate Authority, CN=SSTrain Docsign CA
        Validity
            Not Before: Feb  9 14:38:06 2022 GMT
            Not After : Feb  9 14:38:06 2024 GMT
        Subject: C=US, O=SSTrain AS, CN=Test One
        Subject Public Key Info:
            Public Key Algorithm: rsaEncryption
                RSA Public-Key: (2048 bit)
                Modulus:
                    00:c0:5f:c2:2c:ce:bb:d8:e1:e5:ec:5e:19:db:7b:
                    a2:92:bf:e8:bd:a1:cb:ae:5c:3c:8b:37:a8:df:94:
                    f5:75:89:fa:60:ff:5d:03:37:92:40:3d:a4:ac:d4:
                    36:05:3b:a1:a7:c5:a2:54:45:f5:eb:4c:64:8f:95:
                    bd:85:61:f8:c2:e7:f1:59:83:47:25:32:f9:b9:c3:
                    a5:5f:d8:b1:73:e5:de:af:03:0c:95:d0:27:b5:c7:
                    11:23:47:ea:30:d8:2d:53:d8:64:99:f2:db:04:31:
                    ae:fb:06:83:6f:0d:88:b4:21:c9:aa:04:48:e4:b2:
                    15:16:46:2a:20:b9:c7:d7:55:f8:ef:3e:6f:59:8d:
                    c7:f0:df:20:fa:3d:3f:7c:8e:ef:85:5a:df:20:52:
                    ad:74:c1:3b:f7:99:24:e5:ed:2d:c7:4a:26:35:25:
                    f6:25:c3:c7:30:d3:c2:bd:18:90:1c:c9:ae:47:a2:
                    9b:25:51:ec:69:68:07:01:e0:cd:6b:86:f2:3c:4e:
                    5a:82:eb:ff:db:e0:1c:6f:7b:6b:52:d0:39:a0:2f:
                    b1:81:bc:83:7e:a0:d4:41:90:12:22:68:9e:ca:f7:
                    e0:b2:6e:ae:58:bd:55:a9:49:8c:17:7d:e2:45:08:
                    01:42:fd:b4:93:ec:d5:52:46:7f:6f:a6:72:2e:0c:
                    84:ff
                Exponent: 65537 (0x10001)
        X509v3 extensions:
            X509v3 Key Usage: critical
                Digital Signature, Key Encipherment, CRL Sign
            X509v3 Basic Constraints: 
                CA:TRUE
            X509v3 Extended Key Usage: 
                TLS Web Client Authentication, Any Extended Key Usage
            X509v3 Subject Key Identifier: 
                32:62:F4:7D:84:20:7F:34:01:23:90:9C:DA:83:E7:6A:0E:D6:E1:53
            X509v3 Authority Key Identifier: 
                keyid:9A:14:19:20:AE:7B:7F:BE:68:8B:AF:B1:EA:71:2A:9B:B3:6D:DD:50

            Authority Information Access: 
                CA Issuers - URI:http://sstrain.com/ca/docsign-ca.cer

            X509v3 CRL Distribution Points: 

                Full Name:
                  URI:http://sstrain.com/ca/docsign-ca.crl

            X509v3 Subject Alternative Name: 
                email:testone@gmail.com
    Signature Algorithm: sha1WithRSAEncryption
         7c:d4:8d:6b:75:3d:c8:6b:2b:fb:57:f7:d1:9f:e9:94:0f:89:
         92:11:fc:ae:73:1d:38:c9:9c:66:26:7d:1b:bf:e5:02:7c:cc:
         dd:48:5e:43:cc:e4:94:0a:80:2c:76:85:34:d3:e6:4e:44:f4:
         7c:c8:4a:23:b1:e7:5b:3a:56:b8:d1:9e:7a:bb:24:76:68:47:
         79:dd:9a:e5:9f:b2:e5:a3:ec:e5:f4:9d:bc:1a:17:fa:f5:eb:
         e6:1b:b5:f9:ba:af:35:77:9f:69:de:2c:41:37:cd:b2:07:ae:
         28:a5:f9:fd:dd:b3:b8:f2:0b:5d:9b:24:2c:ca:0b:a6:4d:e5:
         0a:55:e7:d8:d9:ba:d2:1d:52:fd:57:f4:17:42:4c:32:d4:e6:
         ad:9b:82:fc:df:3a:dc:c5:1d:db:9c:50:81:a5:01:44:53:3d:
         da:ba:5f:19:10:98:6f:3a:e4:fa:55:af:ae:d9:d2:a7:c9:bf:
         e9:5a:88:97:33:fc:87:a0:ca:8e:92:80:92:0d:e6:9c:a3:62:
         1c:70:19:c4:44:1e:dd:db:65:08:a2:fa:05:1c:c1:62:65:5d:
         80:57:b2:b4:71:22:aa:98:ee:e6:ec:f5:34:ea:6e:5b:cd:c2:
         4c:63:15:24:80:e5:1e:6f:45:71:56:a0:3a:ae:0f:1e:17:75:
         d3:61:8d:82
-----BEGIN CERTIFICATE-----
MIIENTCCAx2gAwIBAgIBATANBgkqhkiG9w0BAQUFADBvMQswCQYDVQQGEwJVUzET
MBEGA1UECgwKU1NUcmFpbiBBUzEuMCwGA1UECwwlU1NUcmFpbiBEb2NzaWduIENl
cnRpZmljYXRlIEF1dGhvcml0eTEbMBkGA1UEAwwSU1NUcmFpbiBEb2NzaWduIENB
MB4XDTIyMDIwOTE0MzgwNloXDTI0MDIwOTE0MzgwNlowNTELMAkGA1UEBhMCVVMx
EzARBgNVBAoMClNTVHJhaW4gQVMxETAPBgNVBAMMCFRlc3QgT25lMIIBIjANBgkq
hkiG9w0BAQEFAAOCAQ8AMIIBCgKCAQEAwF/CLM672OHl7F4Z23uikr/ovaHLrlw8
izeo35T1dYn6YP9dAzeSQD2krNQ2BTuhp8WiVEX160xkj5W9hWH4wufxWYNHJTL5
ucOlX9ixc+XerwMMldAntccRI0fqMNgtU9hkmfLbBDGu+waDbw2ItCHJqgRI5LIV
FkYqILnH11X47z5vWY3H8N8g+j0/fI7vhVrfIFKtdME795kk5e0tx0omNSX2JcPH
MNPCvRiQHMmuR6KbJVHsaWgHAeDNa4byPE5aguv/2+Acb3trUtA5oC+xgbyDfqDU
QZASImieyvfgsm6uWL1VqUmMF33iRQgBQv20k+zVUkZ/b6ZyLgyE/wIDAQABo4IB
FDCCARAwDgYDVR0PAQH/BAQDAgGiMAwGA1UdEwQFMAMBAf8wGQYDVR0lBBIwEAYI
KwYBBQUHAwIGBFUdJQAwHQYDVR0OBBYEFDJi9H2EIH80ASOQnNqD52oO1uFTMB8G
A1UdIwQYMBaAFJoUGSCue3++aIuvsepxKpuzbd1QMEAGCCsGAQUFBwEBBDQwMjAw
BggrBgEFBQcwAoYkaHR0cDovL3NzdHJhaW4uY29tL2NhL2RvY3NpZ24tY2EuY2Vy
MDUGA1UdHwQuMCwwKqAooCaGJGh0dHA6Ly9zc3RyYWluLmNvbS9jYS9kb2NzaWdu
LWNhLmNybDAcBgNVHREEFTATgRF0ZXN0b25lQGdtYWlsLmNvbTANBgkqhkiG9w0B
AQUFAAOCAQEAfNSNa3U9yGsr+1f30Z/plA+JkhH8rnMdOMmcZiZ9G7/lAnzM3Uhe
Q8zklAqALHaFNNPmTkT0fMhKI7HnWzpWuNGeerskdmhHed2a5Z+y5aPs5fSdvBoX
+vXr5hu1+bqvNXefad4sQTfNsgeuKKX5/d2zuPILXZskLMoLpk3lClXn2Nm60h1S
/Vf0F0JMMtTmrZuC/N863MUd25xQgaUBRFM92rpfGRCYbzrk+lWvrtnSp8m/6VqI
lzP8h6DKjpKAkg3mnKNiHHAZxEQe3dtlCKL6BRzBYmVdgFeytHEiqpju5uz1NOpu
W83CTGMVJIDlHm9FcVagOq4PHhd102GNgg==
-----END CERTIFICATE-----
